target datalayout = "e-m:e-p270:32:32-p271:32:32-p272:64:64-i64:64-i128:128-f80:128-n8:16:32:64-S128"
target triple = "x86_64-pc-linux-gnu"

%struct.xcgroup_ns_t = type { ptr, ptr, ptr, ptr }
%struct.xcgroup_t = type { ptr, ptr, ptr, i32, i32, i32 }

@plugin_name = dso_local constant [17 x i8] c"Cgroup v1 plugin\00", align 16
@plugin_type = dso_local constant [10 x i8] c"cgroup/v1\00", align 1
@g_task_list = dso_local global [5 x ptr] zeroinitializer, align 16
@g_cg_ns = internal global [5 x %struct.xcgroup_ns_t] zeroinitializer, align 16
@int_cg = internal global [5 x [9 x %struct.xcgroup_t]] zeroinitializer, align 16
@.str.6 = private unnamed_addr constant [21 x i8] c"%s: %s: unloading %s\00", align 1
@__func__.fini = private unnamed_addr constant [5 x i8] c"fini\00", align 1

; Function Attrs: nounwind uwtable
define dso_local i32 @fini() #0 {
  %1 = alloca i32, align 4
  call void @llvm.lifetime.start.p0(i64 4, ptr %1) #7
  store i32 0, ptr %1, align 4
  br label %2

2:                                                ; preds = %31, %0
  %3 = load i32, ptr %1, align 4
  %4 = icmp slt i32 %3, 5
  br i1 %4, label %6, label %5

5:                                                ; preds = %2
  call void @llvm.lifetime.end.p0(i64 4, ptr %1) #7
  br label %34

6:                                                ; preds = %2
  br label %7

7:                                                ; preds = %6
  %8 = load i32, ptr %1, align 4
  %9 = sext i32 %8 to i64
  %10 = getelementptr inbounds [5 x ptr], ptr @g_task_list, i64 0, i64 %9
  %11 = load ptr, ptr %10, align 8
  %12 = icmp ne ptr %11, null
  br i1 %12, label %13, label %18

13:                                               ; preds = %7
  %14 = load i32, ptr %1, align 4
  %15 = sext i32 %14 to i64
  %16 = getelementptr inbounds [5 x ptr], ptr @g_task_list, i64 0, i64 %15
  %17 = load ptr, ptr %16, align 8
  call void @list_destroy(ptr noundef %17)
  br label %18

18:                                               ; preds = %13, %7
  %19 = load i32, ptr %1, align 4
  %20 = sext i32 %19 to i64
  %21 = getelementptr inbounds [5 x ptr], ptr @g_task_list, i64 0, i64 %20
  store ptr null, ptr %21, align 8
  br label %22

22:                                               ; preds = %18
  br label %23

23:                                               ; preds = %22
  %24 = load i32, ptr %1, align 4
  %25 = sext i32 %24 to i64
  %26 = getelementptr inbounds [5 x %struct.xcgroup_ns_t], ptr @g_cg_ns, i64 0, i64 %25
  call void @common_cgroup_ns_destroy(ptr noundef %26)
  %27 = load i32, ptr %1, align 4
  %28 = sext i32 %27 to i64
  %29 = getelementptr inbounds [5 x [9 x %struct.xcgroup_t]], ptr @int_cg, i64 0, i64 %28
  %30 = getelementptr inbounds [9 x %struct.xcgroup_t], ptr %29, i64 0, i64 0
  call void @common_cgroup_destroy(ptr noundef %30)
  br label %31

31:                                               ; preds = %23
  %32 = load i32, ptr %1, align 4
  %33 = add nsw i32 %32, 1
  store i32 %33, ptr %1, align 4
  br label %2, !llvm.loop !11

34:                                               ; preds = %5
  br label %35

35:                                               ; preds = %34
  br label %36

36:                                               ; preds = %35
  %37 = call i32 @get_log_level()
  %38 = icmp sge i32 %37, 5
  br i1 %38, label %39, label %40

39:                                               ; preds = %36
  call void (i32, ptr, ...) @log_var(i32 noundef 5, ptr noundef @.str.6, ptr noundef @plugin_type, ptr noundef @__func__.fini, ptr noundef @plugin_name)
  br label %40

40:                                               ; preds = %39, %36
  br label %41

41:                                               ; preds = %40
  br label %42

42:                                               ; preds = %41
  ret i32 0
}