; Function Attrs: nounwind uwtable
define dso_local noundef i32 @fini() local_unnamed_addr #0 {
  br label %4

1:                                                ; preds = %8
  %2 = tail call i32 @get_log_level() #11
  %3 = icmp sgt i32 %2, 4
  br i1 %3, label %11, label %12

4:                                                ; preds = %0, %8
  %indvars.iv = phi i64 [ 0, %0 ], [ %indvars.iv.next, %8 ]
  %5 = getelementptr inbounds nuw [5 x ptr], ptr @g_task_list, i64 0, i64 %indvars.iv
  %6 = load ptr, ptr %5, align 8
  %.not = icmp eq ptr %6, null
  br i1 %.not, label %8, label %7

7:                                                ; preds = %4
  tail call void @list_destroy(ptr noundef nonnull %6) #11
  br label %8

8:                                                ; preds = %7, %4
  store ptr null, ptr %5, align 8
  %9 = getelementptr inbounds nuw [5 x %struct.xcgroup_ns_t], ptr @g_cg_ns, i64 0, i64 %indvars.iv
  tail call void @common_cgroup_ns_destroy(ptr noundef nonnull %9) #11
  %10 = getelementptr inbounds nuw [5 x [9 x %struct.xcgroup_t]], ptr @int_cg, i64 0, i64 %indvars.iv
  tail call void @common_cgroup_destroy(ptr noundef nonnull %10) #11
  %indvars.iv.next = add nuw nsw i64 %indvars.iv, 1
  %exitcond.not = icmp eq i64 %indvars.iv.next, 5
  br i1 %exitcond.not, label %1, label %4, !llvm.loop !11

11:                                               ; preds = %1
  tail call void (i32, ptr, ...) @log_var(i32 noundef 5, ptr noundef nonnull @.str.6, ptr noundef nonnull @plugin_type, ptr noundef nonnull @__func__.fini, ptr noundef nonnull @plugin_name) #11
  br label %12

12:                                               ; preds = %11, %1
  ret i32 0
}